	.file	"boot.c"
# GNU C99 (Ubuntu 5.4.1-2ubuntu1~16.04) version 5.4.1 20160904 (x86_64-linux-gnu)
#	compiled by GNU C version 5.4.1 20160904, GMP version 6.1.0, MPFR version 3.1.4, MPC version 1.0.3
# GGC heuristics: --param ggc-min-expand=100 --param ggc-min-heapsize=131072
# options passed:  -fpreprocessed boot.i -mtune=generic -march=x86-64 -g
# -std=gnu99 -ffunction-sections -fdata-sections -fverbose-asm
# -ffat-lto-objects -fstack-protector-strong -Wformat -Wformat-security
# options enabled:  -faggressive-loop-optimizations
# -fasynchronous-unwind-tables -fauto-inc-dec -fchkp-check-incomplete-type
# -fchkp-check-read -fchkp-check-write -fchkp-instrument-calls
# -fchkp-narrow-bounds -fchkp-optimize -fchkp-store-bounds
# -fchkp-use-static-bounds -fchkp-use-static-const-bounds
# -fchkp-use-wrappers -fcommon -fdata-sections -fdelete-null-pointer-checks
# -fdwarf2-cfi-asm -fearly-inlining -feliminate-unused-debug-types
# -ffunction-cse -ffunction-sections -fgcse-lm -fgnu-runtime -fgnu-unique
# -fident -finline-atomics -fira-hoist-pressure -fira-share-save-slots
# -fira-share-spill-slots -fivopts -fkeep-static-consts
# -fleading-underscore -flifetime-dse -flto-odr-type-merging -fmath-errno
# -fmerge-debug-strings -fpeephole -fprefetch-loop-arrays
# -freg-struct-return -fsched-critical-path-heuristic
# -fsched-dep-count-heuristic -fsched-group-heuristic -fsched-interblock
# -fsched-last-insn-heuristic -fsched-rank-heuristic -fsched-spec
# -fsched-spec-insn-heuristic -fsched-stalled-insns-dep -fschedule-fusion
# -fsemantic-interposition -fshow-column -fsigned-zeros
# -fsplit-ivs-in-unroller -fstack-protector-strong -fstdarg-opt
# -fstrict-volatile-bitfields -fsync-libcalls -ftrapping-math
# -ftree-coalesce-vars -ftree-cselim -ftree-forwprop -ftree-loop-if-convert
# -ftree-loop-im -ftree-loop-ivcanon -ftree-loop-optimize
# -ftree-parallelize-loops= -ftree-phiprop -ftree-reassoc -ftree-scev-cprop
# -funit-at-a-time -funwind-tables -fverbose-asm -fzero-initialized-in-bss
# -m128bit-long-double -m64 -m80387 -malign-stringops
# -mavx256-split-unaligned-load -mavx256-split-unaligned-store
# -mfancy-math-387 -mfp-ret-in-387 -mfxsr -mglibc -mieee-fp
# -mlong-double-80 -mmmx -mno-sse4 -mpush-args -mred-zone -msse -msse2
# -mtls-direct-seg-refs -mvzeroupper

	.text
.Ltext0:
	.comm	U_ID_0,4,4
	.comm	U_ID_1,4,4
	.comm	U_ID_2,4,4
	.comm	imu,8,8
	.comm	receiveLength,4,4
	.comm	__pg_registry_start,8,8
	.comm	__pg_registry_end,8,8
	.comm	__pg_resetdata_start,8,8
	.comm	__pg_resetdata_end,8,8
	.comm	featureConfig,8,8
	.comm	serialConfig_System,28,16
	.comm	sensorSelectionConfig_System,3,1
	.comm	sensorAlignmentConfig_System,12,8
	.comm	sensorTrims_System,12,8
	.comm	accelerometerConfig,8,8
	.comm	gyroConfig,8,8
	.comm	imuConfig,8,8
	.comm	throttleCorrectionConfig,8,8
	.section	.text.configureScheduler,"ax",@progbits
	.globl	configureScheduler
	.type	configureScheduler, @function
configureScheduler:
.LFB14:
	.file 1 "src/main/fc/boot.c"
	.loc 1 764 0
	.cfi_startproc
	pushq	%rbp	#
	.cfi_def_cfa_offset 16
	.cfi_offset 6, -16
	movq	%rsp, %rbp	#,
	.cfi_def_cfa_register 6
	.loc 1 765 0
	call	schedulerInit	#
	.loc 1 766 0
	movl	$1, %esi	#,
	movl	$0, %edi	#,
	call	setTaskEnabled	#
	.loc 1 767 0
	movl	$1, %esi	#,
	movl	$1, %edi	#,
	call	setTaskEnabled	#
	.loc 1 769 0
	movl	$1, %esi	#,
	movl	$2, %edi	#,
	call	setTaskEnabled	#
	.loc 1 771 0
	movl	$1, %esi	#,
	movl	$3, %edi	#,
	call	setTaskEnabled	#
	.loc 1 772 0
	movl	$1, %esi	#,
	movl	$4, %edi	#,
	call	setTaskEnabled	#
	.loc 1 812 0
	nop
	popq	%rbp	#
	.cfi_def_cfa 7, 8
	ret
	.cfi_endproc
.LFE14:
	.size	configureScheduler, .-configureScheduler
	.section	.text.malloc_structs,"ax",@progbits
	.globl	malloc_structs
	.type	malloc_structs, @function
malloc_structs:
.LFB15:
	.loc 1 815 0
	.cfi_startproc
	pushq	%rbp	#
	.cfi_def_cfa_offset 16
	.cfi_offset 6, -16
	movq	%rsp, %rbp	#,
	.cfi_def_cfa_register 6
	.loc 1 816 0
	movl	$16, %edi	#,
	call	malloc	#
	movq	%rax, accelerometerConfig(%rip)	# D.6422, accelerometerConfig
	.loc 1 817 0
	movq	accelerometerConfig(%rip), %rax	# accelerometerConfig, D.6423
	movl	$16, %edx	#,
	movl	$0, %esi	#,
	movq	%rax, %rdi	# D.6423,
	call	memset	#
	.loc 1 818 0
	movq	accelerometerConfig(%rip), %rax	# accelerometerConfig, D.6423
	movq	%rax, %rdi	# D.6423,
	call	pgResetFn_accelerometerConfig	#
	.loc 1 820 0
	movl	$12, %edi	#,
	call	malloc	#
	movq	%rax, imuConfig(%rip)	# D.6422, imuConfig
	.loc 1 821 0
	movq	imuConfig(%rip), %rax	# imuConfig, D.6424
	movl	$12, %edx	#,
	movl	$0, %esi	#,
	movq	%rax, %rdi	# D.6424,
	call	memset	#
	.loc 1 822 0
	movq	imuConfig(%rip), %rax	# imuConfig, D.6424
	movw	$1000, (%rax)	#, _14->looptime
	.loc 1 824 0
	movl	$4, %edi	#,
	call	malloc	#
	movq	%rax, featureConfig(%rip)	# D.6422, featureConfig
	.loc 1 825 0
	movq	featureConfig(%rip), %rax	# featureConfig, D.6425
	movl	$4, %edx	#,
	movl	$0, %esi	#,
	movq	%rax, %rdi	# D.6425,
	call	memset	#
	.loc 1 827 0
	movl	$4, %edi	#,
	call	malloc	#
	movq	%rax, throttleCorrectionConfig(%rip)	# D.6422, throttleCorrectionConfig
	.loc 1 828 0
	movq	throttleCorrectionConfig(%rip), %rax	# throttleCorrectionConfig, D.6426
	movl	$4, %edx	#,
	movl	$0, %esi	#,
	movq	%rax, %rdi	# D.6426,
	call	memset	#
	.loc 1 830 0
	movl	$4, %edi	#,
	call	malloc	#
	movq	%rax, gyroConfig(%rip)	# D.6422, gyroConfig
	.loc 1 831 0
	movq	gyroConfig(%rip), %rax	# gyroConfig, D.6427
	movl	$4, %edx	#,
	movl	$0, %esi	#,
	movq	%rax, %rdi	# D.6427,
	call	memset	#
	.loc 1 832 0
	call	pgResetFn_gyroConfig	#
	.loc 1 833 0
	movq	imuConfig(%rip), %rax	# imuConfig, D.6424
	movzbl	3(%rax), %eax	# _32->gyroSyncDenominator, D.6428
	movzbl	%al, %ecx	# D.6428, D.6429
	movq	imuConfig(%rip), %rax	# imuConfig, D.6424
	movzbl	2(%rax), %eax	# _35->gyroSync, D.6428
	movzbl	%al, %edx	# D.6428, D.6429
	movq	gyroConfig(%rip), %rax	# gyroConfig, D.6427
	movzbl	1(%rax), %eax	# _38->gyro_lpf, D.6428
	movzbl	%al, %esi	# D.6428, D.6429
	movq	imuConfig(%rip), %rax	# imuConfig, D.6424
	movzwl	(%rax), %eax	# _41->looptime, D.6430
	movzwl	%ax, %eax	# D.6430, D.6431
	movl	%eax, %edi	# D.6431,
	call	gyroSetSampleRate	#
	.loc 1 834 0
	nop
	popq	%rbp	#
	.cfi_def_cfa 7, 8
	ret
	.cfi_endproc
.LFE15:
	.size	malloc_structs, .-malloc_structs
	.section	.text.enableFeatures,"ax",@progbits
	.globl	enableFeatures
	.type	enableFeatures, @function
enableFeatures:
.LFB16:
	.loc 1 837 0
	.cfi_startproc
	pushq	%rbp	#
	.cfi_def_cfa_offset 16
	.cfi_offset 6, -16
	movq	%rsp, %rbp	#,
	.cfi_def_cfa_register 6
	.loc 1 838 0
	movl	$4, %edi	#,
	call	featureSet	#
	.loc 1 839 0
	nop
	popq	%rbp	#
	.cfi_def_cfa 7, 8
	ret
	.cfi_endproc
.LFE16:
	.size	enableFeatures, .-enableFeatures
	.section	.text.init,"ax",@progbits
	.globl	init
	.type	init, @function
init:
.LFB17:
	.loc 1 841 0
	.cfi_startproc
	pushq	%rbp	#
	.cfi_def_cfa_offset 16
	.cfi_offset 6, -16
	movq	%rsp, %rbp	#,
	.cfi_def_cfa_register 6
	.loc 1 842 0
	call	systemInit	#
	.loc 1 843 0
	call	malloc_structs	#
	.loc 1 844 0
	call	enableFeatures	#
	.loc 1 845 0
	call	latchActiveFeatures	#
	.loc 1 846 0
	call	configureScheduler	#
	.loc 1 847 0
	movl	$1, %edi	#,
	call	serialInit	#
	.loc 1 848 0
	call	mspInit	#
	.loc 1 849 0
	call	mspSerialInit	#
	.loc 1 850 0
	call	activateConfig	#
	.loc 1 851 0
	call	imuInit	#
	.loc 1 858 0
	nop
	popq	%rbp	#
	.cfi_def_cfa 7, 8
	ret
	.cfi_endproc
.LFE17:
	.size	init, .-init
	.section	.rodata
.LC0:
	.string	"Welcome to Cleanflight"
.LC1:
	.string	"init done"
	.section	.text.main,"ax",@progbits
	.globl	main
	.type	main, @function
main:
.LFB18:
	.loc 1 860 0
	.cfi_startproc
	pushq	%rbp	#
	.cfi_def_cfa_offset 16
	.cfi_offset 6, -16
	movq	%rsp, %rbp	#,
	.cfi_def_cfa_register 6
	.loc 1 861 0
	movl	$.LC0, %edi	#,
	call	puts	#
	.loc 1 863 0
	call	init	#
	.loc 1 865 0
	movl	$.LC1, %edi	#,
	call	puts	#
.L6:
	.loc 1 869 0 discriminator 1
	call	scheduler	#
	.loc 1 870 0 discriminator 1
	jmp	.L6	#
	.cfi_endproc
.LFE18:
	.size	main, .-main
	.text
.Letext0:
	.file 2 "/usr/include/stdint.h"
	.file 3 "/usr/include/mraa/i2c.h"
	.file 4 "./src/main/drivers/SFE_LSM9DS0.h"
	.file 5 "./src/main/fc/fc_tasks.h"
	.file 6 "./src/main/fc/config.h"
	.file 7 "./src/main/config/parameter_group.h"
	.file 8 "./src/main/config/feature.h"
	.file 9 "./src/main/io/io_serial.h"
	.file 10 "./src/main/sensors/sensors.h"
	.file 11 "./src/main/sensors/acceleration.h"
	.file 12 "./src/main/sensors/gyro.h"
	.file 13 "./src/main/flight/imu.h"
	.file 14 "./src/main/target/edison/target.h"
	.file 15 "./src/main/drivers/serial_uart.h"
	.file 16 "./src/main/drivers/system.h"
	.section	.note.GNU-stack,"",@progbits
