	.file	"msp_server_fc.c"
# GNU C99 (Ubuntu 5.4.1-2ubuntu1~16.04) version 5.4.1 20160904 (x86_64-linux-gnu)
#	compiled by GNU C version 5.4.1 20160904, GMP version 6.1.0, MPFR version 3.1.4, MPC version 1.0.3
# GGC heuristics: --param ggc-min-expand=100 --param ggc-min-heapsize=131072
# options passed:  -fpreprocessed msp_server_fc.i -mtune=generic
# -march=x86-64 -g -std=gnu99 -ffunction-sections -fdata-sections
# -fverbose-asm -ffat-lto-objects -fstack-protector-strong -Wformat
# -Wformat-security
# options enabled:  -faggressive-loop-optimizations
# -fasynchronous-unwind-tables -fauto-inc-dec -fchkp-check-incomplete-type
# -fchkp-check-read -fchkp-check-write -fchkp-instrument-calls
# -fchkp-narrow-bounds -fchkp-optimize -fchkp-store-bounds
# -fchkp-use-static-bounds -fchkp-use-static-const-bounds
# -fchkp-use-wrappers -fcommon -fdata-sections -fdelete-null-pointer-checks
# -fdwarf2-cfi-asm -fearly-inlining -feliminate-unused-debug-types
# -ffunction-cse -ffunction-sections -fgcse-lm -fgnu-runtime -fgnu-unique
# -fident -finline-atomics -fira-hoist-pressure -fira-share-save-slots
# -fira-share-spill-slots -fivopts -fkeep-static-consts
# -fleading-underscore -flifetime-dse -flto-odr-type-merging -fmath-errno
# -fmerge-debug-strings -fpeephole -fprefetch-loop-arrays
# -freg-struct-return -fsched-critical-path-heuristic
# -fsched-dep-count-heuristic -fsched-group-heuristic -fsched-interblock
# -fsched-last-insn-heuristic -fsched-rank-heuristic -fsched-spec
# -fsched-spec-insn-heuristic -fsched-stalled-insns-dep -fschedule-fusion
# -fsemantic-interposition -fshow-column -fsigned-zeros
# -fsplit-ivs-in-unroller -fstack-protector-strong -fstdarg-opt
# -fstrict-volatile-bitfields -fsync-libcalls -ftrapping-math
# -ftree-coalesce-vars -ftree-cselim -ftree-forwprop -ftree-loop-if-convert
# -ftree-loop-im -ftree-loop-ivcanon -ftree-loop-optimize
# -ftree-parallelize-loops= -ftree-phiprop -ftree-reassoc -ftree-scev-cprop
# -funit-at-a-time -funwind-tables -fverbose-asm -fzero-initialized-in-bss
# -m128bit-long-double -m64 -m80387 -malign-stringops
# -mavx256-split-unaligned-load -mavx256-split-unaligned-store
# -mfancy-math-387 -mfp-ret-in-387 -mfxsr -mglibc -mieee-fp
# -mlong-double-80 -mmmx -mno-sse4 -mpush-args -mred-zone -msse -msse2
# -mtls-direct-seg-refs -mvzeroupper

	.text
.Ltext0:
	.comm	U_ID_0,4,4
	.comm	U_ID_1,4,4
	.comm	U_ID_2,4,4
	.comm	__pg_registry_start,8,8
	.comm	__pg_registry_end,8,8
	.comm	__pg_resetdata_start,8,8
	.comm	__pg_resetdata_end,8,8
	.comm	featureConfig,8,8
	.comm	profileSelection_System,1,1
	.comm	imu,8,8
	.comm	rxConfig_System,26,16
	.comm	armingConfig_System,4,1
	.comm	motorAndServoConfig_System,12,8
	.comm	gpsConfig_System,16,16
	.comm	serialConfig_System,28,16
	.comm	specialColors_System,11,8
	.comm	transponderConfig_System,6,1
	.comm	telemetryConfig_System,3,1
	.comm	boardAlignment_System,6,1
	.comm	sensorSelectionConfig_System,3,1
	.comm	sensorAlignmentConfig_System,12,8
	.comm	sensorTrims_System,12,8
	.comm	batteryConfig_System,8,8
	.comm	accelerometerConfig,8,8
	.comm	gyroConfig,8,8
	.comm	mixerConfig_System,6,2
	.section	.text.mixerConfig,"ax",@progbits
	.type	mixerConfig, @function
mixerConfig:
.LFB56:
	.file 1 "./src/main/flight/mixer.h"
	.loc 1 92 0
	.cfi_startproc
	pushq	%rbp	#
	.cfi_def_cfa_offset 16
	.cfi_offset 6, -16
	movq	%rsp, %rbp	#,
	.cfi_def_cfa_register 6
	.loc 1 92 0
	movl	$mixerConfig_System, %eax	#, D.8898
	popq	%rbp	#
	.cfi_def_cfa 7, 8
	ret
	.cfi_endproc
.LFE56:
	.size	mixerConfig, .-mixerConfig
	.comm	motor3DConfig_System,6,2
	.comm	inputSource_e,4,4
	.comm	imuConfig,8,8
	.comm	throttleCorrectionConfig,8,8
	.comm	failsafeConfig_System,8,8
	.comm	airplaneConfig_System,1,1
	.comm	blackboxConfig_System,3,1
	.comm	mspServerConfig_System,1,1
	.section	.bss.enabledSensors,"aw",@nobits
	.align 4
	.type	enabledSensors, @object
	.size	enabledSensors, 4
enabledSensors:
	.zero	4
	.section	.rodata
.LC0:
	.string	"CLFL"
	.section	.rodata.flightControllerIdentifier,"a",@progbits
	.align 8
	.type	flightControllerIdentifier, @object
	.size	flightControllerIdentifier, 8
flightControllerIdentifier:
	.quad	.LC0
	.section	.rodata
.LC1:
	.string	"EDISON"
	.section	.rodata.boardIdentifier,"a",@progbits
	.align 8
	.type	boardIdentifier, @object
	.size	boardIdentifier, 8
boardIdentifier:
	.quad	.LC1
	.section	.rodata
.LC2:
	.string	"ARM"
.LC3:
	.string	"ANGLE"
.LC4:
	.string	"HORIZON"
.LC5:
	.string	"BARO"
.LC6:
	.string	"MAG"
.LC7:
	.string	"HEADFREE"
.LC8:
	.string	"HEADADJ"
.LC9:
	.string	"CAMSTAB"
.LC10:
	.string	"CAMTRIG"
.LC11:
	.string	"GPS HOME"
.LC12:
	.string	"GPS HOLD"
.LC13:
	.string	"PASSTHRU"
.LC14:
	.string	"BEEPER"
.LC15:
	.string	"LEDMAX"
.LC16:
	.string	"LEDLOW"
.LC17:
	.string	"LLIGHTS"
.LC18:
	.string	"CALIB"
.LC19:
	.string	"GOVERNOR"
.LC20:
	.string	"OSD SW"
.LC21:
	.string	"TELEMETRY"
.LC22:
	.string	"GTUNE"
.LC23:
	.string	"SONAR"
.LC24:
	.string	"SERVO1"
.LC25:
	.string	"SERVO2"
.LC26:
	.string	"SERVO3"
.LC27:
	.string	"BLACKBOX"
.LC28:
	.string	"FAILSAFE"
.LC29:
	.string	"AIR MODE"
	.section	.rodata.boxes,"a",@progbits
	.align 32
	.type	boxes, @object
	.size	boxes, 448
boxes:
# boxName:
	.quad	.LC2
# boxId:
	.byte	0
# permanentId:
	.byte	0
	.zero	6
# boxName:
	.quad	.LC3
# boxId:
	.byte	1
# permanentId:
	.byte	1
	.zero	6
# boxName:
	.quad	.LC4
# boxId:
	.byte	2
# permanentId:
	.byte	2
	.zero	6
# boxName:
	.quad	.LC5
# boxId:
	.byte	3
# permanentId:
	.byte	3
	.zero	6
# boxName:
	.quad	.LC6
# boxId:
	.byte	4
# permanentId:
	.byte	5
	.zero	6
# boxName:
	.quad	.LC7
# boxId:
	.byte	5
# permanentId:
	.byte	6
	.zero	6
# boxName:
	.quad	.LC8
# boxId:
	.byte	6
# permanentId:
	.byte	7
	.zero	6
# boxName:
	.quad	.LC9
# boxId:
	.byte	7
# permanentId:
	.byte	8
	.zero	6
# boxName:
	.quad	.LC10
# boxId:
	.byte	8
# permanentId:
	.byte	9
	.zero	6
# boxName:
	.quad	.LC11
# boxId:
	.byte	9
# permanentId:
	.byte	10
	.zero	6
# boxName:
	.quad	.LC12
# boxId:
	.byte	10
# permanentId:
	.byte	11
	.zero	6
# boxName:
	.quad	.LC13
# boxId:
	.byte	11
# permanentId:
	.byte	12
	.zero	6
# boxName:
	.quad	.LC14
# boxId:
	.byte	12
# permanentId:
	.byte	13
	.zero	6
# boxName:
	.quad	.LC15
# boxId:
	.byte	13
# permanentId:
	.byte	14
	.zero	6
# boxName:
	.quad	.LC16
# boxId:
	.byte	14
# permanentId:
	.byte	15
	.zero	6
# boxName:
	.quad	.LC17
# boxId:
	.byte	15
# permanentId:
	.byte	16
	.zero	6
# boxName:
	.quad	.LC18
# boxId:
	.byte	16
# permanentId:
	.byte	17
	.zero	6
# boxName:
	.quad	.LC19
# boxId:
	.byte	17
# permanentId:
	.byte	18
	.zero	6
# boxName:
	.quad	.LC20
# boxId:
	.byte	18
# permanentId:
	.byte	19
	.zero	6
# boxName:
	.quad	.LC21
# boxId:
	.byte	19
# permanentId:
	.byte	20
	.zero	6
# boxName:
	.quad	.LC22
# boxId:
	.byte	20
# permanentId:
	.byte	21
	.zero	6
# boxName:
	.quad	.LC23
# boxId:
	.byte	21
# permanentId:
	.byte	22
	.zero	6
# boxName:
	.quad	.LC24
# boxId:
	.byte	22
# permanentId:
	.byte	23
	.zero	6
# boxName:
	.quad	.LC25
# boxId:
	.byte	23
# permanentId:
	.byte	24
	.zero	6
# boxName:
	.quad	.LC26
# boxId:
	.byte	24
# permanentId:
	.byte	25
	.zero	6
# boxName:
	.quad	.LC27
# boxId:
	.byte	25
# permanentId:
	.byte	26
	.zero	6
# boxName:
	.quad	.LC28
# boxId:
	.byte	26
# permanentId:
	.byte	27
	.zero	6
# boxName:
	.quad	.LC29
# boxId:
	.byte	27
# permanentId:
	.byte	28
	.zero	6
	.section	.bss.activeBoxIds,"aw",@nobits
	.align 4
	.type	activeBoxIds, @object
	.size	activeBoxIds, 4
activeBoxIds:
	.zero	4
	.section	.rodata.pidnames,"a",@progbits
	.align 32
	.type	pidnames, @object
	.size	pidnames, 48
pidnames:
	.string	"ROLL;PITCH;YAW;ALT;Pos;PosR;NavR;LEVEL;MAG;VEL;"
	.section	.text.findBoxByBoxId,"ax",@progbits
	.type	findBoxByBoxId, @function
findBoxByBoxId:
.LFB67:
	.file 2 "src/main/fc/msp_server_fc.c"
	.loc 2 226 0
	.cfi_startproc
	pushq	%rbp	#
	.cfi_def_cfa_offset 16
	.cfi_offset 6, -16
	movq	%rsp, %rbp	#,
	.cfi_def_cfa_register 6
	movl	%edi, %eax	# boxId, tmp90
	movb	%al, -20(%rbp)	# tmp90, boxId
.LBB2:
	.loc 2 227 0
	movl	$0, -12(%rbp)	#, i
	jmp	.L4	#
.L7:
.LBB3:
	.loc 2 228 0
	movl	-12(%rbp), %eax	# i, tmp91
	salq	$4, %rax	#, tmp92
	addq	$boxes, %rax	#, tmp93
	movq	%rax, -8(%rbp)	# tmp93, candidate
	.loc 2 229 0
	movq	-8(%rbp), %rax	# candidate, tmp94
	movzbl	8(%rax), %eax	# candidate_4->boxId, D.8930
	cmpb	-20(%rbp), %al	# boxId, D.8930
	jne	.L5	#,
	.loc 2 230 0
	movq	-8(%rbp), %rax	# candidate, D.8929
	jmp	.L6	#
.L5:
.LBE3:
	.loc 2 227 0 discriminator 2
	addl	$1, -12(%rbp)	#, i
.L4:
	.loc 2 227 0 is_stmt 0 discriminator 1
	cmpl	$27, -12(%rbp)	#, i
	jbe	.L7	#,
.LBE2:
	.loc 2 233 0 is_stmt 1
	movl	$0, %eax	#, D.8929
.L6:
	.loc 2 234 0
	popq	%rbp	#
	.cfi_def_cfa 7, 8
	ret
	.cfi_endproc
.LFE67:
	.size	findBoxByBoxId, .-findBoxByBoxId
	.section	.text.findBoxByPermenantId,"ax",@progbits
	.type	findBoxByPermenantId, @function
findBoxByPermenantId:
.LFB68:
	.loc 2 237 0
	.cfi_startproc
	pushq	%rbp	#
	.cfi_def_cfa_offset 16
	.cfi_offset 6, -16
	movq	%rsp, %rbp	#,
	.cfi_def_cfa_register 6
	movl	%edi, %eax	# permanentId, tmp90
	movb	%al, -20(%rbp)	# tmp90, permanentId
.LBB4:
	.loc 2 238 0
	movl	$0, -12(%rbp)	#, i
	jmp	.L9	#
.L12:
.LBB5:
	.loc 2 239 0
	movl	-12(%rbp), %eax	# i, tmp91
	salq	$4, %rax	#, tmp92
	addq	$boxes, %rax	#, tmp93
	movq	%rax, -8(%rbp)	# tmp93, candidate
	.loc 2 240 0
	movq	-8(%rbp), %rax	# candidate, tmp94
	movzbl	9(%rax), %eax	# candidate_4->permanentId, D.8932
	cmpb	-20(%rbp), %al	# permanentId, D.8932
	jne	.L10	#,
	.loc 2 241 0
	movq	-8(%rbp), %rax	# candidate, D.8931
	jmp	.L11	#
.L10:
.LBE5:
	.loc 2 238 0 discriminator 2
	addl	$1, -12(%rbp)	#, i
.L9:
	.loc 2 238 0 is_stmt 0 discriminator 1
	cmpl	$27, -12(%rbp)	#, i
	jbe	.L12	#,
.LBE4:
	.loc 2 244 0 is_stmt 1
	movl	$0, %eax	#, D.8931
.L11:
	.loc 2 245 0
	popq	%rbp	#
	.cfi_def_cfa 7, 8
	ret
	.cfi_endproc
.LFE68:
	.size	findBoxByPermenantId, .-findBoxByPermenantId
	.section	.text.serializeBoxNamesReply,"ax",@progbits
	.type	serializeBoxNamesReply, @function
serializeBoxNamesReply:
.LFB69:
	.loc 2 248 0
	.cfi_startproc
	pushq	%rbp	#
	.cfi_def_cfa_offset 16
	.cfi_offset 6, -16
	movq	%rsp, %rbp	#,
	.cfi_def_cfa_register 6
	subq	$48, %rsp	#,
	movq	%rdi, -40(%rbp)	# reply, reply
	.loc 2 249 0
	movq	-40(%rbp), %rax	# reply, tmp94
	movq	%rax, -16(%rbp)	# tmp94, dst
.LBB6:
	.loc 2 250 0
	movl	$0, -20(%rbp)	#, i
	jmp	.L14	#
.L17:
.LBB7:
	.loc 2 251 0
	movl	-20(%rbp), %eax	# i, tmp95
	movl	$1, %edx	#, tmp96
	movl	%eax, %ecx	# tmp95, tmp103
	sall	%cl, %edx	# tmp103, D.8933
	movl	%edx, %eax	# D.8933, D.8933
	movl	%eax, %edx	# D.8933, D.8934
	movl	activeBoxIds(%rip), %eax	# activeBoxIds, D.8934
	andl	%edx, %eax	# D.8934, D.8934
	testl	%eax, %eax	# D.8934
	je	.L18	#,
	.loc 2 253 0
	movl	-20(%rbp), %eax	# i, tmp97
	movzbl	%al, %eax	# D.8935, D.8933
	movl	%eax, %edi	# D.8933,
	call	findBoxByBoxId	#
	movq	%rax, -8(%rbp)	# tmp98, box
	.loc 2 254 0
	movq	-8(%rbp), %rax	# box, tmp99
	movq	(%rax), %rdx	# box_15->boxName, D.8936
	movq	-16(%rbp), %rax	# dst, tmp100
	movq	%rdx, %rsi	# D.8936,
	movq	%rax, %rdi	# tmp100,
	call	sbufWriteString	#
	.loc 2 256 0
	movq	-16(%rbp), %rax	# dst, tmp101
	movl	$59, %esi	#,
	movq	%rax, %rdi	# tmp101,
	call	sbufWriteU8	#
	jmp	.L16	#
.L18:
	.loc 2 252 0
	nop
.L16:
.LBE7:
	.loc 2 250 0 discriminator 2
	addl	$1, -20(%rbp)	#, i
.L14:
	.loc 2 250 0 is_stmt 0 discriminator 1
	cmpl	$27, -20(%rbp)	#, i
	jle	.L17	#,
.LBE6:
	.loc 2 258 0 is_stmt 1
	nop
	leave
	.cfi_def_cfa 7, 8
	ret
	.cfi_endproc
.LFE69:
	.size	serializeBoxNamesReply, .-serializeBoxNamesReply
	.section	.text.serializeBoxIdsReply,"ax",@progbits
	.type	serializeBoxIdsReply, @function
serializeBoxIdsReply:
.LFB70:
	.loc 2 261 0
	.cfi_startproc
	pushq	%rbp	#
	.cfi_def_cfa_offset 16
	.cfi_offset 6, -16
	movq	%rsp, %rbp	#,
	.cfi_def_cfa_register 6
	subq	$48, %rsp	#,
	movq	%rdi, -40(%rbp)	# reply, reply
	.loc 2 262 0
	movq	-40(%rbp), %rax	# reply, tmp95
	movq	%rax, -16(%rbp)	# tmp95, dst
.LBB8:
	.loc 2 263 0
	movl	$0, -20(%rbp)	#, i
	jmp	.L20	#
.L23:
.LBB9:
	.loc 2 264 0
	movl	-20(%rbp), %eax	# i, tmp96
	movl	$1, %edx	#, tmp97
	movl	%eax, %ecx	# tmp96, tmp103
	sall	%cl, %edx	# tmp103, D.8937
	movl	%edx, %eax	# D.8937, D.8937
	movl	%eax, %edx	# D.8937, D.8938
	movl	activeBoxIds(%rip), %eax	# activeBoxIds, D.8938
	andl	%edx, %eax	# D.8938, D.8938
	testl	%eax, %eax	# D.8938
	je	.L24	#,
	.loc 2 266 0
	movl	-20(%rbp), %eax	# i, tmp98
	movzbl	%al, %eax	# D.8939, D.8937
	movl	%eax, %edi	# D.8937,
	call	findBoxByBoxId	#
	movq	%rax, -8(%rbp)	# tmp99, box
	.loc 2 267 0
	movq	-8(%rbp), %rax	# box, tmp100
	movzbl	9(%rax), %eax	# box_15->permanentId, D.8939
	movzbl	%al, %edx	# D.8939, D.8937
	movq	-16(%rbp), %rax	# dst, tmp101
	movl	%edx, %esi	# D.8937,
	movq	%rax, %rdi	# tmp101,
	call	sbufWriteU8	#
	jmp	.L22	#
.L24:
	.loc 2 265 0
	nop
.L22:
.LBE9:
	.loc 2 263 0 discriminator 2
	addl	$1, -20(%rbp)	#, i
.L20:
	.loc 2 263 0 is_stmt 0 discriminator 1
	cmpl	$27, -20(%rbp)	#, i
	jle	.L23	#,
.LBE8:
	.loc 2 269 0 is_stmt 1
	nop
	leave
	.cfi_def_cfa 7, 8
	ret
	.cfi_endproc
.LFE70:
	.size	serializeBoxIdsReply, .-serializeBoxIdsReply
	.section	.text.initActiveBoxIds,"ax",@progbits
	.type	initActiveBoxIds, @function
initActiveBoxIds:
.LFB71:
	.loc 2 272 0
	.cfi_startproc
	pushq	%rbp	#
	.cfi_def_cfa_offset 16
	.cfi_offset 6, -16
	movq	%rsp, %rbp	#,
	.cfi_def_cfa_register 6
	subq	$16, %rsp	#,
	.loc 2 273 0
	movl	$0, -8(%rbp)	#, ena
	.loc 2 275 0
	orl	$1, -8(%rbp)	#, ena
	.loc 2 278 0
	movl	$2, %edi	#,
	call	sensors	#
	testb	%al, %al	# D.8940
	je	.L26	#,
	.loc 2 279 0
	orl	$2, -8(%rbp)	#, ena
	.loc 2 280 0
	orl	$4, -8(%rbp)	#, ena
.L26:
	.loc 2 289 0
	orl	$134217728, -8(%rbp)	#, ena
	.loc 2 291 0
	movl	$2, %edi	#,
	call	sensors	#
	testb	%al, %al	# D.8940
	jne	.L27	#,
	.loc 2 291 0 is_stmt 0 discriminator 1
	movl	$8, %edi	#,
	call	sensors	#
	testb	%al, %al	# D.8940
	je	.L28	#,
.L27:
	.loc 2 292 0 is_stmt 1
	orl	$16, -8(%rbp)	#, ena
	.loc 2 293 0
	orl	$32, -8(%rbp)	#, ena
	.loc 2 294 0
	orl	$64, -8(%rbp)	#, ena
.L28:
	.loc 2 298 0
	movl	$32, %edi	#,
	call	feature	#
	testb	%al, %al	# D.8940
	je	.L29	#,
	.loc 2 299 0
	orl	$128, -8(%rbp)	#, ena
.L29:
	.loc 2 308 0
	call	mixerConfig	#
	movzbl	(%rax), %eax	# _36->mixerMode, D.8942
	cmpb	$8, %al	#, D.8942
	je	.L30	#,
	.loc 2 309 0
	call	mixerConfig	#
	movzbl	(%rax), %eax	# _39->mixerMode, D.8942
	cmpb	$14, %al	#, D.8942
	je	.L30	#,
	.loc 2 310 0
	call	mixerConfig	#
	movzbl	(%rax), %eax	# _42->mixerMode, D.8942
	cmpb	$24, %al	#, D.8942
	jne	.L31	#,
.L30:
	.loc 2 311 0
	orl	$2048, -8(%rbp)	#, ena
.L31:
	.loc 2 313 0
	orl	$4096, -8(%rbp)	#, ena
	.loc 2 322 0
	movl	$4, %edi	#,
	call	feature	#
	testb	%al, %al	# D.8940
	je	.L32	#,
	.loc 2 323 0
	orl	$65536, -8(%rbp)	#, ena
.L32:
	.loc 2 325 0
	orl	$262144, -8(%rbp)	#, ena
	.loc 2 333 0
	movl	$512, %edi	#,
	call	feature	#
	testb	%al, %al	# D.8940
	je	.L33	#,
	.loc 2 334 0
	orl	$2097152, -8(%rbp)	#, ena
.L33:
	.loc 2 352 0
	movl	$256, %edi	#,
	call	feature	#
	testb	%al, %al	# D.8940
	je	.L34	#,
	.loc 2 353 0
	orl	$67108864, -8(%rbp)	#, ena
.L34:
	.loc 2 357 0
	orl	$1048576, -8(%rbp)	#, ena
.LBB10:
	.loc 2 361 0
	movl	$0, -4(%rbp)	#, boxId
	jmp	.L35	#
.L37:
	.loc 2 362 0
	movl	-4(%rbp), %eax	# boxId, tmp109
	movl	$1, %edx	#, tmp110
	movl	%eax, %ecx	# tmp109, tmp116
	sall	%cl, %edx	# tmp116, D.8943
	movl	%edx, %eax	# D.8943, D.8943
	andl	-8(%rbp), %eax	# ena, D.8944
	testl	%eax, %eax	# D.8944
	je	.L36	#,
	.loc 2 363 0
	movl	-4(%rbp), %eax	# boxId, tmp111
	movzbl	%al, %eax	# D.8942, D.8943
	movl	%eax, %edi	# D.8943,
	call	findBoxByBoxId	#
	testq	%rax, %rax	# D.8945
	jne	.L36	#,
	.loc 2 364 0
	movl	-4(%rbp), %eax	# boxId, tmp112
	movl	$1, %edx	#, tmp113
	movl	%eax, %ecx	# tmp112, tmp118
	sall	%cl, %edx	# tmp118, D.8943
	movl	%edx, %eax	# D.8943, D.8943
	notl	%eax	# D.8943
	andl	%eax, -8(%rbp)	# D.8944, ena
.L36:
	.loc 2 361 0 discriminator 2
	addl	$1, -4(%rbp)	#, boxId
.L35:
	.loc 2 361 0 is_stmt 0 discriminator 1
	cmpl	$27, -4(%rbp)	#, boxId
	jbe	.L37	#,
.LBE10:
	.loc 2 365 0 is_stmt 1
	movl	-8(%rbp), %eax	# ena, tmp114
	movl	%eax, activeBoxIds(%rip)	# tmp114, activeBoxIds
	.loc 2 366 0
	nop
	leave
	.cfi_def_cfa 7, 8
	ret
	.cfi_endproc
.LFE71:
	.size	initActiveBoxIds, .-initActiveBoxIds
	.section	.text.packFlightModeFlags,"ax",@progbits
	.type	packFlightModeFlags, @function
packFlightModeFlags:
.LFB72:
	.loc 2 371 0
	.cfi_startproc
	pushq	%rbp	#
	.cfi_def_cfa_offset 16
	.cfi_offset 6, -16
	movq	%rsp, %rbp	#,
	.cfi_def_cfa_register 6
	subq	$32, %rsp	#,
	.loc 2 376 0
	movl	$0, -32(%rbp)	#, boxEnabledMask
	.loc 2 380 0
	movl	$-2049, -8(%rbp)	#, flightModeCopyMask
.LBB11:
	.loc 2 381 0
	movl	$0, -28(%rbp)	#, i
	jmp	.L39	#
.L43:
	.loc 2 382 0
	movl	-28(%rbp), %eax	# i, tmp119
	movzbl	flightMode_boxId_map.8586(%rax), %eax	# flightMode_boxId_map, D.8946
	cmpb	$-1, %al	#, D.8946
	je	.L55	#,
	.loc 2 384 0
	movl	-28(%rbp), %eax	# i, tmp120
	movl	$1, %edx	#, tmp121
	movl	%eax, %ecx	# tmp120, tmp138
	sall	%cl, %edx	# tmp138, D.8947
	movl	%edx, %eax	# D.8947, D.8947
	andl	-8(%rbp), %eax	# flightModeCopyMask, D.8948
	testl	%eax, %eax	# D.8948
	je	.L56	#,
	.loc 2 386 0
	movzwl	flightModeFlags(%rip), %eax	# flightModeFlags, D.8949
	movzwl	%ax, %edx	# D.8949, D.8947
	movl	-28(%rbp), %eax	# i, tmp122
	movl	%eax, %ecx	# tmp122, tmp140
	sarl	%cl, %edx	# tmp140, D.8947
	movl	%edx, %eax	# D.8947, D.8947
	andl	$1, %eax	#, D.8947
	testl	%eax, %eax	# D.8947
	je	.L41	#,
	.loc 2 387 0
	movl	-28(%rbp), %eax	# i, tmp123
	movzbl	flightMode_boxId_map.8586(%rax), %eax	# flightMode_boxId_map, D.8946
	movsbl	%al, %eax	# D.8946, D.8947
	movl	$1, %edx	#, tmp124
	movl	%eax, %ecx	# D.8947, tmp142
	sall	%cl, %edx	# tmp142, D.8947
	movl	%edx, %eax	# D.8947, D.8947
	orl	%eax, -32(%rbp)	# D.8948, boxEnabledMask
	jmp	.L41	#
.L55:
	.loc 2 383 0
	nop
	jmp	.L41	#
.L56:
	.loc 2 385 0
	nop
.L41:
	.loc 2 381 0 discriminator 2
	addl	$1, -28(%rbp)	#, i
.L39:
	.loc 2 381 0 is_stmt 0 discriminator 1
	cmpl	$11, -28(%rbp)	#, i
	jbe	.L43	#,
.LBE11:
	.loc 2 393 0 is_stmt 1
	movl	$169865664, -4(%rbp)	#, rcModeCopyMask
.LBB12:
	.loc 2 396 0
	movl	$0, -24(%rbp)	#, i
	jmp	.L44	#
.L47:
	.loc 2 397 0
	movl	-24(%rbp), %eax	# i, tmp125
	movl	$1, %edx	#, tmp126
	movl	%eax, %ecx	# tmp125, tmp144
	sall	%cl, %edx	# tmp144, D.8947
	movl	%edx, %eax	# D.8947, D.8947
	andl	-4(%rbp), %eax	# rcModeCopyMask, D.8948
	testl	%eax, %eax	# D.8948
	je	.L57	#,
	.loc 2 399 0
	movl	-24(%rbp), %eax	# i, tmp127
	movl	%eax, %edi	# tmp127,
	call	rcModeIsActive	#
	testb	%al, %al	# D.8950
	je	.L46	#,
	.loc 2 400 0
	movl	-24(%rbp), %eax	# i, tmp128
	movl	$1, %edx	#, tmp129
	movl	%eax, %ecx	# tmp128, tmp146
	sall	%cl, %edx	# tmp146, D.8947
	movl	%edx, %eax	# D.8947, D.8947
	orl	%eax, -32(%rbp)	# D.8948, boxEnabledMask
	jmp	.L46	#
.L57:
	.loc 2 398 0
	nop
.L46:
	.loc 2 396 0 discriminator 2
	addl	$1, -24(%rbp)	#, i
.L44:
	.loc 2 396 0 is_stmt 0 discriminator 1
	cmpl	$31, -24(%rbp)	#, i
	jbe	.L47	#,
.LBE12:
	.loc 2 404 0 is_stmt 1
	movzbl	armingFlags(%rip), %eax	# armingFlags, D.8951
	movzbl	%al, %eax	# D.8951, D.8947
	andl	$4, %eax	#, D.8947
	testl	%eax, %eax	# D.8947
	je	.L48	#,
	.loc 2 405 0
	orl	$1, -32(%rbp)	#, boxEnabledMask
.L48:
	.loc 2 409 0
	movl	$0, -20(%rbp)	#, mspBoxEnabledMask
	.loc 2 410 0
	movl	$0, -16(%rbp)	#, mspBoxIdx
.LBB13:
	.loc 2 411 0
	movl	$0, -12(%rbp)	#, boxId
	jmp	.L49	#
.L53:
	.loc 2 412 0
	movl	-12(%rbp), %eax	# boxId, tmp130
	movl	$1, %edx	#, tmp131
	movl	%eax, %ecx	# tmp130, tmp148
	sall	%cl, %edx	# tmp148, D.8947
	movl	%edx, %eax	# D.8947, D.8947
	movl	%eax, %edx	# D.8947, D.8948
	movl	activeBoxIds(%rip), %eax	# activeBoxIds, D.8948
	andl	%edx, %eax	# D.8948, D.8948
	testl	%eax, %eax	# D.8948
	je	.L58	#,
	.loc 2 414 0
	movl	-12(%rbp), %eax	# boxId, tmp132
	movl	$1, %edx	#, tmp133
	movl	%eax, %ecx	# tmp132, tmp150
	sall	%cl, %edx	# tmp150, D.8947
	movl	%edx, %eax	# D.8947, D.8947
	andl	-32(%rbp), %eax	# boxEnabledMask, D.8948
	testl	%eax, %eax	# D.8948
	je	.L52	#,
	.loc 2 415 0
	movl	-16(%rbp), %eax	# mspBoxIdx, tmp134
	movl	$1, %edx	#, tmp135
	movl	%eax, %ecx	# tmp134, tmp152
	sall	%cl, %edx	# tmp152, D.8947
	movl	%edx, %eax	# D.8947, D.8947
	orl	%eax, -20(%rbp)	# D.8948, mspBoxEnabledMask
.L52:
	.loc 2 416 0
	addl	$1, -16(%rbp)	#, mspBoxIdx
	jmp	.L51	#
.L58:
	.loc 2 413 0
	nop
.L51:
	.loc 2 411 0 discriminator 2
	addl	$1, -12(%rbp)	#, boxId
.L49:
	.loc 2 411 0 is_stmt 0 discriminator 1
	cmpl	$27, -12(%rbp)	#, boxId
	jbe	.L53	#,
.LBE13:
	.loc 2 418 0 is_stmt 1
	movl	-20(%rbp), %eax	# mspBoxEnabledMask, D.8952
	.loc 2 419 0
	leave
	.cfi_def_cfa 7, 8
	ret
	.cfi_endproc
.LFE72:
	.size	packFlightModeFlags, .-packFlightModeFlags
	.section	.text.serializeSDCardSummaryReply,"ax",@progbits
	.type	serializeSDCardSummaryReply, @function
serializeSDCardSummaryReply:
.LFB73:
	.loc 2 422 0
	.cfi_startproc
	pushq	%rbp	#
	.cfi_def_cfa_offset 16
	.cfi_offset 6, -16
	movq	%rsp, %rbp	#,
	.cfi_def_cfa_register 6
	subq	$32, %rsp	#,
	movq	%rdi, -24(%rbp)	# reply, reply
	.loc 2 423 0
	movq	-24(%rbp), %rax	# reply, tmp87
	movq	%rax, -8(%rbp)	# tmp87, dst
	.loc 2 461 0
	movq	-8(%rbp), %rax	# dst, tmp88
	movl	$0, %esi	#,
	movq	%rax, %rdi	# tmp88,
	call	sbufWriteU8	#
	.loc 2 462 0
	movq	-8(%rbp), %rax	# dst, tmp89
	movl	$0, %esi	#,
	movq	%rax, %rdi	# tmp89,
	call	sbufWriteU8	#
	.loc 2 463 0
	movq	-8(%rbp), %rax	# dst, tmp90
	movl	$0, %esi	#,
	movq	%rax, %rdi	# tmp90,
	call	sbufWriteU8	#
	.loc 2 464 0
	movq	-8(%rbp), %rax	# dst, tmp91
	movl	$0, %esi	#,
	movq	%rax, %rdi	# tmp91,
	call	sbufWriteU32	#
	.loc 2 465 0
	movq	-8(%rbp), %rax	# dst, tmp92
	movl	$0, %esi	#,
	movq	%rax, %rdi	# tmp92,
	call	sbufWriteU32	#
	.loc 2 467 0
	nop
	leave
	.cfi_def_cfa 7, 8
	ret
	.cfi_endproc
.LFE73:
	.size	serializeSDCardSummaryReply, .-serializeSDCardSummaryReply
	.section	.text.serializeDataflashSummaryReply,"ax",@progbits
	.type	serializeDataflashSummaryReply, @function
serializeDataflashSummaryReply:
.LFB74:
	.loc 2 470 0
	.cfi_startproc
	pushq	%rbp	#
	.cfi_def_cfa_offset 16
	.cfi_offset 6, -16
	movq	%rsp, %rbp	#,
	.cfi_def_cfa_register 6
	subq	$32, %rsp	#,
	movq	%rdi, -24(%rbp)	# reply, reply
	.loc 2 471 0
	movq	-24(%rbp), %rax	# reply, tmp87
	movq	%rax, -8(%rbp)	# tmp87, dst
	.loc 2 481 0
	movq	-8(%rbp), %rax	# dst, tmp88
	movl	$0, %esi	#,
	movq	%rax, %rdi	# tmp88,
	call	sbufWriteU8	#
	.loc 2 482 0
	movq	-8(%rbp), %rax	# dst, tmp89
	movl	$0, %esi	#,
	movq	%rax, %rdi	# tmp89,
	call	sbufWriteU32	#
	.loc 2 483 0
	movq	-8(%rbp), %rax	# dst, tmp90
	movl	$0, %esi	#,
	movq	%rax, %rdi	# tmp90,
	call	sbufWriteU32	#
	.loc 2 484 0
	movq	-8(%rbp), %rax	# dst, tmp91
	movl	$0, %esi	#,
	movq	%rax, %rdi	# tmp91,
	call	sbufWriteU32	#
	.loc 2 486 0
	nop
	leave
	.cfi_def_cfa 7, 8
	ret
	.cfi_endproc
.LFE74:
	.size	serializeDataflashSummaryReply, .-serializeDataflashSummaryReply
	.section	.rodata
.LC30:
	.string	"command code: %d\n"
.LC31:
	.string	"Calibrating"
	.section	.text.mspServerCommandHandler,"ax",@progbits
	.globl	mspServerCommandHandler
	.type	mspServerCommandHandler, @function
mspServerCommandHandler:
.LFB75:
	.loc 2 502 0
	.cfi_startproc
	pushq	%rbp	#
	.cfi_def_cfa_offset 16
	.cfi_offset 6, -16
	movq	%rsp, %rbp	#,
	.cfi_def_cfa_register 6
	pushq	%rbx	#
	subq	$88, %rsp	#,
	.cfi_offset 3, -24
	movq	%rdi, -88(%rbp)	# cmd, cmd
	movq	%rsi, -96(%rbp)	# reply, reply
	.loc 2 503 0
	movq	-96(%rbp), %rax	# reply, tmp175
	movq	%rax, -32(%rbp)	# tmp175, dst
	.loc 2 504 0
	movq	-88(%rbp), %rax	# cmd, tmp176
	movq	%rax, -24(%rbp)	# tmp176, src
	.loc 2 510 0
	movq	-24(%rbp), %rax	# src, tmp177
	movq	%rax, %rdi	# tmp177,
	call	sbufBytesRemaining	#
	movl	%eax, -52(%rbp)	# tmp178, len
	.loc 2 513 0
	movq	-88(%rbp), %rax	# cmd, tmp179
	movzwl	16(%rax), %eax	# cmd_15(D)->cmd, D.8954
	cmpw	$8, %ax	#, D.8954
	jle	.L62	#,
	.loc 2 513 0 is_stmt 0 discriminator 1
	movq	-88(%rbp), %rax	# cmd, tmp180
	movzwl	16(%rax), %eax	# cmd_15(D)->cmd, D.8954
	cmpw	$160, %ax	#, D.8954
	je	.L62	#,
	.loc 2 514 0 is_stmt 1
	movq	-88(%rbp), %rax	# cmd, tmp181
	movzwl	16(%rax), %eax	# cmd_15(D)->cmd, D.8954
	cwtl
	movl	%eax, %esi	# D.8955,
	movl	$.LC30, %edi	#,
	movl	$0, %eax	#,
	call	printf	#
.L62:
	.loc 2 515 0
	movq	-88(%rbp), %rax	# cmd, tmp182
	movzwl	16(%rax), %eax	# cmd_15(D)->cmd, D.8954
	cwtl
	cmpl	$101, %eax	#, D.8955
	je	.L64	#,
	cmpl	$101, %eax	#, D.8955
	jg	.L65	#,
	cmpl	$5, %eax	#, D.8955
	je	.L66	#,
	cmpl	$5, %eax	#, D.8955
	jg	.L67	#,
	cmpl	$2, %eax	#, D.8955
	je	.L68	#,
	cmpl	$2, %eax	#, D.8955
	jg	.L69	#,
	cmpl	$1, %eax	#, D.8955
	je	.L70	#,
	.loc 2 752 0
	jmp	.L91	#
.L69:
	.loc 2 515 0
	cmpl	$3, %eax	#, D.8955
	je	.L71	#,
	cmpl	$4, %eax	#, D.8955
	je	.L72	#,
	.loc 2 752 0
	jmp	.L91	#
.L67:
	.loc 2 515 0
	cmpl	$36, %eax	#, D.8955
	je	.L73	#,
	cmpl	$36, %eax	#, D.8955
	jg	.L74	#,
	cmpl	$32, %eax	#, D.8955
	je	.L75	#,
	.loc 2 752 0
	jmp	.L91	#
.L74:
	.loc 2 515 0
	cmpl	$70, %eax	#, D.8955
	je	.L76	#,
	cmpl	$100, %eax	#, D.8955
	je	.L77	#,
	.loc 2 752 0
	jmp	.L91	#
.L65:
	.loc 2 515 0
	cmpl	$116, %eax	#, D.8955
	je	.L78	#,
	cmpl	$116, %eax	#, D.8955
	jg	.L79	#,
	cmpl	$108, %eax	#, D.8955
	je	.L80	#,
	cmpl	$108, %eax	#, D.8955
	jg	.L81	#,
	cmpl	$102, %eax	#, D.8955
	je	.L82	#,
	.loc 2 752 0
	jmp	.L91	#
.L81:
	.loc 2 515 0
	cmpl	$110, %eax	#, D.8955
	je	.L83	#,
	cmpl	$114, %eax	#, D.8955
	je	.L84	#,
	.loc 2 752 0
	jmp	.L91	#
.L79:
	.loc 2 515 0
	cmpl	$205, %eax	#, D.8955
	je	.L85	#,
	cmpl	$205, %eax	#, D.8955
	jg	.L86	#,
	cmpl	$128, %eax	#, D.8955
	je	.L87	#,
	cmpl	$160, %eax	#, D.8955
	je	.L88	#,
	.loc 2 752 0
	jmp	.L91	#
.L86:
	.loc 2 515 0
	cmpl	$208, %eax	#, D.8955
	je	.L104	#,
	cmpl	$240, %eax	#, D.8955
	je	.L90	#,
	.loc 2 752 0
	jmp	.L91	#
.L70:
	.loc 2 518 0
	movq	-32(%rbp), %rax	# dst, tmp183
	movl	$0, %esi	#,
	movq	%rax, %rdi	# tmp183,
	call	sbufWriteU8	#
	.loc 2 519 0
	movq	-32(%rbp), %rax	# dst, tmp184
	movl	$1, %esi	#,
	movq	%rax, %rdi	# tmp184,
	call	sbufWriteU8	#
	.loc 2 520 0
	movq	-32(%rbp), %rax	# dst, tmp185
	movl	$22, %esi	#,
	movq	%rax, %rdi	# tmp185,
	call	sbufWriteU8	#
	.loc 2 521 0
	jmp	.L91	#
.L68:
	.loc 2 524 0
	movl	$.LC0, %ecx	#, D.8956
	movq	-32(%rbp), %rax	# dst, tmp186
	movl	$4, %edx	#,
	movq	%rcx, %rsi	# D.8956,
	movq	%rax, %rdi	# tmp186,
	call	sbufWriteData	#
	.loc 2 525 0
	movq	-32(%rbp), %rax	# dst, tmp187
	movl	$1, %esi	#,
	movq	%rax, %rdi	# tmp187,
	call	sbufWriteU8	#
	.loc 2 526 0
	movq	-32(%rbp), %rax	# dst, tmp188
	movl	$14, %esi	#,
	movq	%rax, %rdi	# tmp188,
	call	sbufWriteU8	#
	.loc 2 527 0
	movq	-32(%rbp), %rax	# dst, tmp189
	movl	$0, %esi	#,
	movq	%rax, %rdi	# tmp189,
	call	sbufWriteU8	#
	.loc 2 528 0
	jmp	.L91	#
.L71:
	.loc 2 531 0
	movq	-32(%rbp), %rax	# dst, tmp190
	movl	$1, %esi	#,
	movq	%rax, %rdi	# tmp190,
	call	sbufWriteU8	#
	.loc 2 532 0
	movq	-32(%rbp), %rax	# dst, tmp191
	movl	$14, %esi	#,
	movq	%rax, %rdi	# tmp191,
	call	sbufWriteU8	#
	.loc 2 533 0
	movq	-32(%rbp), %rax	# dst, tmp192
	movl	$0, %esi	#,
	movq	%rax, %rdi	# tmp192,
	call	sbufWriteU8	#
	.loc 2 534 0
	jmp	.L91	#
.L72:
	.loc 2 537 0
	movl	$.LC1, %ecx	#, D.8956
	movq	-32(%rbp), %rax	# dst, tmp193
	movl	$4, %edx	#,
	movq	%rcx, %rsi	# D.8956,
	movq	%rax, %rdi	# tmp193,
	call	sbufWriteData	#
	.loc 2 542 0
	movq	-32(%rbp), %rax	# dst, tmp194
	movl	$0, %esi	#,
	movq	%rax, %rdi	# tmp194,
	call	sbufWriteU16	#
	.loc 2 544 0
	movq	-32(%rbp), %rax	# dst, tmp195
	movl	$0, %esi	#,
	movq	%rax, %rdi	# tmp195,
	call	sbufWriteU8	#
	.loc 2 545 0
	jmp	.L91	#
.L66:
	.loc 2 548 0
	movq	buildDate(%rip), %rcx	# buildDate, D.8956
	movq	-32(%rbp), %rax	# dst, tmp196
	movl	$11, %edx	#,
	movq	%rcx, %rsi	# D.8956,
	movq	%rax, %rdi	# tmp196,
	call	sbufWriteData	#
	.loc 2 549 0
	movq	buildTime(%rip), %rcx	# buildTime, D.8956
	movq	-32(%rbp), %rax	# dst, tmp197
	movl	$8, %edx	#,
	movq	%rcx, %rsi	# D.8956,
	movq	%rax, %rdi	# tmp197,
	call	sbufWriteData	#
	.loc 2 550 0
	movq	shortGitRevision(%rip), %rcx	# shortGitRevision, D.8956
	movq	-32(%rbp), %rax	# dst, tmp198
	movl	$7, %edx	#,
	movq	%rcx, %rsi	# D.8956,
	movq	%rax, %rdi	# tmp198,
	call	sbufWriteData	#
	.loc 2 551 0
	jmp	.L91	#
.L77:
	.loc 2 555 0
	movq	-32(%rbp), %rax	# dst, tmp199
	movl	$231, %esi	#,
	movq	%rax, %rdi	# tmp199,
	call	sbufWriteU8	#
	.loc 2 556 0
	call	mixerConfig	#
	movzbl	(%rax), %eax	# _50->mixerMode, D.8958
	movzbl	%al, %edx	# D.8958, D.8955
	movq	-32(%rbp), %rax	# dst, tmp200
	movl	%edx, %esi	# D.8955,
	movq	%rax, %rdi	# tmp200,
	call	sbufWriteU8	#
	.loc 2 557 0
	movq	-32(%rbp), %rax	# dst, tmp201
	movl	$0, %esi	#,
	movq	%rax, %rdi	# tmp201,
	call	sbufWriteU8	#
	.loc 2 558 0
	movq	-32(%rbp), %rax	# dst, tmp202
	movl	$4, %esi	#,
	movq	%rax, %rdi	# tmp202,
	call	sbufWriteU32	#
	.loc 2 559 0
	jmp	.L91	#
.L64:
	.loc 2 563 0
	movzwl	cycleTime(%rip), %eax	# cycleTime, D.8959
	movzwl	%ax, %edx	# D.8959, D.8955
	movq	-32(%rbp), %rax	# dst, tmp203
	movl	%edx, %esi	# D.8955,
	movq	%rax, %rdi	# tmp203,
	call	sbufWriteU16	#
	.loc 2 567 0
	movq	-32(%rbp), %rax	# dst, tmp204
	movl	$0, %esi	#,
	movq	%rax, %rdi	# tmp204,
	call	sbufWriteU16	#
	.loc 2 569 0
	movl	$2, %edi	#,
	call	sensors	#
	movzbl	%al, %ebx	# D.8960, D.8961
	movl	$4, %edi	#,
	call	sensors	#
	movzbl	%al, %eax	# D.8960, D.8955
	addl	%eax, %eax	# D.8955
	orl	%eax, %ebx	# D.8961, D.8961
	movl	$8, %edi	#,
	call	sensors	#
	movzbl	%al, %eax	# D.8960, D.8955
	sall	$2, %eax	#, D.8955
	orl	%eax, %ebx	# D.8961, D.8961
	movl	$32, %edi	#,
	call	sensors	#
	movzbl	%al, %eax	# D.8960, D.8955
	sall	$3, %eax	#, D.8955
	orl	%eax, %ebx	# D.8961, D.8961
	movl	$16, %edi	#,
	call	sensors	#
	movzbl	%al, %eax	# D.8960, D.8955
	sall	$4, %eax	#, D.8955
	orl	%ebx, %eax	# D.8961, D.8961
	movzwl	%ax, %edx	# D.8959, D.8955
	movq	-32(%rbp), %rax	# dst, tmp205
	movl	%edx, %esi	# D.8955,
	movq	%rax, %rdi	# tmp205,
	call	sbufWriteU16	#
	.loc 2 570 0
	call	packFlightModeFlags	#
	movl	%eax, %edx	#, D.8953
	movq	-32(%rbp), %rax	# dst, tmp206
	movl	%edx, %esi	# D.8953,
	movq	%rax, %rdi	# tmp206,
	call	sbufWriteU32	#
	.loc 2 571 0
	call	getCurrentProfile	#
	movzbl	%al, %edx	# D.8958, D.8955
	movq	-32(%rbp), %rax	# dst, tmp207
	movl	%edx, %esi	# D.8955,
	movq	%rax, %rdi	# tmp207,
	call	sbufWriteU8	#
	.loc 2 572 0
	movzwl	averageSystemLoadPercent(%rip), %eax	# averageSystemLoadPercent, D.8959
	movzwl	%ax, %eax	# D.8959, D.8955
	movl	$100, %edx	#,
	movl	$0, %esi	#,
	movl	%eax, %edi	# D.8955,
	call	constrain	#
	movzwl	%ax, %edx	# D.8959, D.8955
	movq	-32(%rbp), %rax	# dst, tmp208
	movl	%edx, %esi	# D.8955,
	movq	%rax, %rdi	# tmp208,
	call	sbufWriteU16	#
	.loc 2 573 0
	jmp	.L91	#
.L82:
.LBB14:
	.loc 2 577 0
	movzwl	acc+16(%rip), %eax	# acc.acc_1G, D.8959
	cmpw	$1024, %ax	#, D.8959
	jbe	.L92	#,
	.loc 2 577 0 is_stmt 0 discriminator 1
	movl	$3, %eax	#, D.8953
	jmp	.L93	#
.L92:
	.loc 2 577 0 discriminator 2
	movl	$0, %eax	#, D.8953
.L93:
	.loc 2 577 0 discriminator 4
	movl	%eax, -48(%rbp)	# D.8953, scale_shift
.LBB15:
	.loc 2 579 0 is_stmt 1 discriminator 4
	movl	$0, -68(%rbp)	#, i
	jmp	.L94	#
.L95:
	.loc 2 580 0 discriminator 3
	movl	-68(%rbp), %eax	# i, tmp209
	movzwl	accSmooth(%rax,%rax), %eax	# accSmooth, D.8954
	movswl	%ax, %edx	# D.8954, D.8955
	movl	-48(%rbp), %eax	# scale_shift, tmp210
	movl	%eax, %ecx	# tmp210, tmp262
	sarl	%cl, %edx	# tmp262, D.8955
	movl	%edx, %eax	# D.8955, D.8955
	movzwl	%ax, %edx	# D.8959, D.8955
	movq	-32(%rbp), %rax	# dst, tmp211
	movl	%edx, %esi	# D.8955,
	movq	%rax, %rdi	# tmp211,
	call	sbufWriteU16	#
	.loc 2 579 0 discriminator 3
	addl	$1, -68(%rbp)	#, i
.L94:
	.loc 2 579 0 is_stmt 0 discriminator 1
	cmpl	$2, -68(%rbp)	#, i
	jbe	.L95	#,
.LBE15:
.LBB16:
	.loc 2 581 0 is_stmt 1
	movl	$0, -64(%rbp)	#, i
	jmp	.L96	#
.L97:
	.loc 2 582 0 discriminator 3
	movl	-64(%rbp), %eax	# i, tmp212
	movl	gyroADC(,%rax,4), %eax	# gyroADC, D.8955
	movzwl	%ax, %edx	# D.8959, D.8955
	movq	-32(%rbp), %rax	# dst, tmp213
	movl	%edx, %esi	# D.8955,
	movq	%rax, %rdi	# tmp213,
	call	sbufWriteU16	#
	.loc 2 581 0 discriminator 3
	addl	$1, -64(%rbp)	#, i
.L96:
	.loc 2 581 0 is_stmt 0 discriminator 1
	cmpl	$2, -64(%rbp)	#, i
	jbe	.L97	#,
.LBE16:
.LBB17:
	.loc 2 583 0 is_stmt 1
	movl	$0, -60(%rbp)	#, i
	jmp	.L98	#
.L99:
	.loc 2 584 0 discriminator 3
	movl	-60(%rbp), %eax	# i, tmp214
	movl	magADC(,%rax,4), %eax	# magADC, D.8955
	movzwl	%ax, %edx	# D.8959, D.8955
	movq	-32(%rbp), %rax	# dst, tmp215
	movl	%edx, %esi	# D.8955,
	movq	%rax, %rdi	# tmp215,
	call	sbufWriteU16	#
	.loc 2 583 0 discriminator 3
	addl	$1, -60(%rbp)	#, i
.L98:
	.loc 2 583 0 is_stmt 0 discriminator 1
	cmpl	$2, -60(%rbp)	#, i
	jbe	.L99	#,
.LBE17:
	.loc 2 585 0 is_stmt 1
	jmp	.L91	#
.L76:
.LBE14:
	.loc 2 590 0
	movq	-96(%rbp), %rax	# reply, tmp216
	movq	%rax, %rdi	# tmp216,
	call	serializeDataflashSummaryReply	#
	.loc 2 591 0
	jmp	.L91	#
.L73:
	.loc 2 594 0
	call	featureMask	#
	movl	%eax, %edx	#, D.8953
	movq	-32(%rbp), %rax	# dst, tmp217
	movl	%edx, %esi	# D.8953,
	movq	%rax, %rdi	# tmp217,
	call	sbufWriteU32	#
	.loc 2 595 0
	jmp	.L91	#
.L88:
	.loc 2 599 0
	movq	-32(%rbp), %rax	# dst, tmp218
	movl	$0, %esi	#,
	movq	%rax, %rdi	# tmp218,
	call	sbufWriteU32	#
	.loc 2 600 0
	movq	-32(%rbp), %rax	# dst, tmp219
	movl	$0, %esi	#,
	movq	%rax, %rdi	# tmp219,
	call	sbufWriteU32	#
	.loc 2 601 0
	movq	-32(%rbp), %rax	# dst, tmp220
	movl	$0, %esi	#,
	movq	%rax, %rdi	# tmp220,
	call	sbufWriteU32	#
	.loc 2 602 0
	jmp	.L91	#
.L75:
	.loc 2 615 0
	movq	-32(%rbp), %rax	# dst, tmp221
	movl	$255, %esi	#,
	movq	%rax, %rdi	# tmp221,
	call	sbufWriteU8	#
	.loc 2 616 0
	movq	-32(%rbp), %rax	# dst, tmp222
	movl	$255, %esi	#,
	movq	%rax, %rdi	# tmp222,
	call	sbufWriteU8	#
	.loc 2 617 0
	movq	-32(%rbp), %rax	# dst, tmp223
	movl	$255, %esi	#,
	movq	%rax, %rdi	# tmp223,
	call	sbufWriteU8	#
	.loc 2 618 0
	movq	-32(%rbp), %rax	# dst, tmp224
	movl	$65535, %esi	#,
	movq	%rax, %rdi	# tmp224,
	call	sbufWriteU16	#
	.loc 2 619 0
	movq	-32(%rbp), %rax	# dst, tmp225
	movl	$255, %esi	#,
	movq	%rax, %rdi	# tmp225,
	call	sbufWriteU8	#
	.loc 2 620 0
	jmp	.L91	#
.L90:
	.loc 2 624 0
	movq	accelerometerConfig(%rip), %rax	# accelerometerConfig, D.8962
	movzwl	2(%rax), %eax	# _140->accelerometerTrims.values.pitch, D.8954
	movzwl	%ax, %edx	# D.8959, D.8955
	movq	-32(%rbp), %rax	# dst, tmp226
	movl	%edx, %esi	# D.8955,
	movq	%rax, %rdi	# tmp226,
	call	sbufWriteU16	#
	.loc 2 625 0
	movq	accelerometerConfig(%rip), %rax	# accelerometerConfig, D.8962
	movzwl	(%rax), %eax	# _145->accelerometerTrims.values.roll, D.8954
	movzwl	%ax, %edx	# D.8959, D.8955
	movq	-32(%rbp), %rax	# dst, tmp227
	movl	%edx, %esi	# D.8955,
	movq	%rax, %rdi	# tmp227,
	call	sbufWriteU16	#
	.loc 2 626 0
	jmp	.L91	#
.L78:
	.loc 2 630 0
	movq	-96(%rbp), %rax	# reply, tmp228
	movq	%rax, %rdi	# tmp228,
	call	serializeBoxNamesReply	#
	.loc 2 631 0
	jmp	.L91	#
.L87:
.LBB18:
	.loc 2 639 0
	movl	$0, -56(%rbp)	#, i
	jmp	.L100	#
.L101:
	.loc 2 640 0 discriminator 3
	movq	-32(%rbp), %rax	# dst, tmp229
	movl	$255, %esi	#,
	movq	%rax, %rdi	# tmp229,
	call	sbufWriteU8	#
	.loc 2 639 0 discriminator 3
	addl	$1, -56(%rbp)	#, i
.L100:
	.loc 2 639 0 is_stmt 0 discriminator 1
	cmpl	$0, -56(%rbp)	#, i
	jle	.L101	#,
.LBE18:
	.loc 2 642 0 is_stmt 1
	jmp	.L91	#
.L84:
	.loc 2 670 0
	movq	-32(%rbp), %rax	# dst, tmp230
	movl	$65535, %esi	#,
	movq	%rax, %rdi	# tmp230,
	call	sbufWriteU16	#
	.loc 2 672 0
	movq	-32(%rbp), %rax	# dst, tmp231
	movl	$65535, %esi	#,
	movq	%rax, %rdi	# tmp231,
	call	sbufWriteU16	#
	.loc 2 673 0
	movq	-32(%rbp), %rax	# dst, tmp232
	movl	$65535, %esi	#,
	movq	%rax, %rdi	# tmp232,
	call	sbufWriteU16	#
	.loc 2 674 0
	movq	-32(%rbp), %rax	# dst, tmp233
	movl	$65535, %esi	#,
	movq	%rax, %rdi	# tmp233,
	call	sbufWriteU16	#
	.loc 2 676 0
	movq	-32(%rbp), %rax	# dst, tmp234
	movl	$65535, %esi	#,
	movq	%rax, %rdi	# tmp234,
	call	sbufWriteU16	#
	.loc 2 684 0
	movq	-32(%rbp), %rax	# dst, tmp235
	movl	$0, %esi	#,
	movq	%rax, %rdi	# tmp235,
	call	sbufWriteU8	#
	.loc 2 685 0
	movq	-32(%rbp), %rax	# dst, tmp236
	movl	$0, %esi	#,
	movq	%rax, %rdi	# tmp236,
	call	sbufWriteU8	#
	.loc 2 686 0
	movq	-32(%rbp), %rax	# dst, tmp237
	movl	$0, %esi	#,
	movq	%rax, %rdi	# tmp237,
	call	sbufWriteU8	#
	.loc 2 689 0
	movq	-32(%rbp), %rax	# dst, tmp238
	movl	$255, %esi	#,
	movq	%rax, %rdi	# tmp238,
	call	sbufWriteU8	#
	.loc 2 690 0
	movq	-32(%rbp), %rax	# dst, tmp239
	movl	$255, %esi	#,
	movq	%rax, %rdi	# tmp239,
	call	sbufWriteU8	#
	.loc 2 691 0
	movq	-32(%rbp), %rax	# dst, tmp240
	movl	$0, %esi	#,
	movq	%rax, %rdi	# tmp240,
	call	sbufWriteU8	#
	.loc 2 693 0
	movq	-32(%rbp), %rax	# dst, tmp241
	movl	$65535, %esi	#,
	movq	%rax, %rdi	# tmp241,
	call	sbufWriteU16	#
	.loc 2 695 0
	jmp	.L91	#
.L85:
	.loc 2 698 0
	movl	$.LC31, %edi	#,
	call	puts	#
	.loc 2 699 0
	movzbl	armingFlags(%rip), %eax	# armingFlags, D.8958
	movzbl	%al, %eax	# D.8958, D.8955
	andl	$4, %eax	#, D.8955
	testl	%eax, %eax	# D.8955
	jne	.L105	#,
	.loc 2 700 0
	movl	$400, %edi	#,
	call	accSetCalibrationCycles	#
	.loc 2 701 0
	jmp	.L105	#
.L80:
	.loc 2 704 0
	movzwl	attitude+4(%rip), %eax	# attitude.values.yaw, D.8954
	movswl	%ax, %edx	# D.8954, tmp242
	imull	$26215, %edx, %edx	#, tmp242, tmp243
	shrl	$16, %edx	#, tmp244
	sarw	$2, %dx	#, tmp245
	sarw	$15, %ax	#, tmp246
	subl	%eax, %edx	# tmp246, D.8954
	movl	%edx, %eax	# D.8954, D.8954
	cwtl
	pxor	%xmm0, %xmm0	# D.8963
	cvtsi2sd	%eax, %xmm0	# tmp247, D.8963
	cvtsd2ss	%xmm0, %xmm1	# D.8963, tmp264
	movss	%xmm1, -44(%rbp)	# tmp264, attitude_yaw
	.loc 2 705 0
	movzwl	attitude+2(%rip), %eax	# attitude.values.pitch, D.8954
	cwtl
	pxor	%xmm0, %xmm0	# D.8963
	cvtsi2sd	%eax, %xmm0	# tmp248, D.8963
	cvtsd2ss	%xmm0, %xmm2	# D.8963, tmp265
	movss	%xmm2, -40(%rbp)	# tmp265, attitude_pitch
	.loc 2 706 0
	movzwl	attitude(%rip), %eax	# attitude.values.roll, D.8954
	cwtl
	pxor	%xmm0, %xmm0	# D.8963
	cvtsi2sd	%eax, %xmm0	# tmp249, D.8963
	cvtsd2ss	%xmm0, %xmm3	# D.8963, tmp266
	movss	%xmm3, -36(%rbp)	# tmp266, attitude_roll
	.loc 2 708 0
	cvttss2si	-36(%rbp), %eax	# attitude_roll, tmp250
	movzwl	%ax, %edx	# D.8959, D.8955
	movq	-32(%rbp), %rax	# dst, tmp251
	movl	%edx, %esi	# D.8955,
	movq	%rax, %rdi	# tmp251,
	call	sbufWriteU16	#
	.loc 2 709 0
	cvttss2si	-40(%rbp), %eax	# attitude_pitch, tmp252
	movzwl	%ax, %edx	# D.8959, D.8955
	movq	-32(%rbp), %rax	# dst, tmp253
	movl	%edx, %esi	# D.8955,
	movq	%rax, %rdi	# tmp253,
	call	sbufWriteU16	#
	.loc 2 710 0
	cvttss2si	-44(%rbp), %eax	# attitude_yaw, tmp254
	movzwl	%ax, %edx	# D.8959, D.8955
	movq	-32(%rbp), %rax	# dst, tmp255
	movl	%edx, %esi	# D.8955,
	movq	%rax, %rdi	# tmp255,
	call	sbufWriteU16	#
	.loc 2 716 0
	jmp	.L91	#
.L83:
	.loc 2 733 0
	movq	-32(%rbp), %rax	# dst, tmp256
	movl	$0, %esi	#,
	movq	%rax, %rdi	# tmp256,
	call	sbufWriteU8	#
	.loc 2 734 0
	movq	-32(%rbp), %rax	# dst, tmp257
	movl	$65535, %esi	#,
	movq	%rax, %rdi	# tmp257,
	call	sbufWriteU16	#
	.loc 2 735 0
	movq	-32(%rbp), %rax	# dst, tmp258
	movl	$65535, %esi	#,
	movq	%rax, %rdi	# tmp258,
	call	sbufWriteU16	#
	.loc 2 737 0
	movq	-32(%rbp), %rax	# dst, tmp259
	movl	$65535, %esi	#,
	movq	%rax, %rdi	# tmp259,
	call	sbufWriteU16	#
	.loc 2 739 0
	jmp	.L91	#
.L104:
	.loc 2 748 0
	nop
	jmp	.L91	#
.L105:
	.loc 2 701 0
	nop
.L91:
	.loc 2 1622 0
	movl	$1, %eax	#, D.8955
	.loc 2 1623 0
	addq	$88, %rsp	#,
	popq	%rbx	#
	popq	%rbp	#
	.cfi_def_cfa 7, 8
	ret
	.cfi_endproc
.LFE75:
	.size	mspServerCommandHandler, .-mspServerCommandHandler
	.section	.text.mspInit,"ax",@progbits
	.globl	mspInit
	.type	mspInit, @function
mspInit:
.LFB76:
	.loc 2 1626 0
	.cfi_startproc
	pushq	%rbp	#
	.cfi_def_cfa_offset 16
	.cfi_offset 6, -16
	movq	%rsp, %rbp	#,
	.cfi_def_cfa_register 6
	.loc 2 1627 0
	call	initActiveBoxIds	#
	.loc 2 1628 0
	nop
	popq	%rbp	#
	.cfi_def_cfa 7, 8
	ret
	.cfi_endproc
.LFE76:
	.size	mspInit, .-mspInit
	.section	.rodata.flightMode_boxId_map.8586,"a",@progbits
	.align 8
	.type	flightMode_boxId_map.8586, @object
	.size	flightMode_boxId_map.8586, 12
flightMode_boxId_map.8586:
	.byte	1
	.byte	2
	.byte	4
	.byte	3
	.byte	9
	.byte	10
	.byte	5
	.byte	-1
	.byte	11
	.byte	21
	.byte	26
	.byte	20
	.section	.bss.n.8623,"aw",@nobits
	.align 4
	.type	n.8623, @object
	.size	n.8623, 4
n.8623:
	.zero	4
	.text
.Letext0:
	.file 3 "/usr/include/stdint.h"
	.file 4 "./src/main/common/axis.h"
	.file 5 "./src/main/common/color.h"
	.file 6 "./src/main/common/streambuf.h"
	.file 7 "./src/main/config/parameter_group.h"
	.file 8 "./src/main/config/feature.h"
	.file 9 "./src/main/config/profile.h"
	.file 10 "/usr/include/mraa/i2c.h"
	.file 11 "./src/main/drivers/SFE_LSM9DS0.h"
	.file 12 "./src/main/drivers/sensor.h"
	.file 13 "./src/main/drivers/accgyro.h"
	.file 14 "./src/main/rx/rx.h"
	.file 15 "./src/main/msp/msp.h"
	.file 16 "./src/main/fc/rate_profile.h"
	.file 17 "./src/main/fc/rc_controls.h"
	.file 18 "./src/main/fc/rc_adjustments.h"
	.file 19 "./src/main/fc/runtime_config.h"
	.file 20 "./src/main/fc/config.h"
	.file 21 "./src/main/io/motor_and_servo.h"
	.file 22 "./src/main/io/gps.h"
	.file 23 "./src/main/io/gimbal.h"
	.file 24 "./src/main/io/io_serial.h"
	.file 25 "./src/main/io/ledstrip.h"
	.file 26 "./src/main/io/transponder_ir.h"
	.file 27 "./src/main/telemetry/telemetry.h"
	.file 28 "./src/main/sensors/boardalignment.h"
	.file 29 "./src/main/sensors/sensors.h"
	.file 30 "./src/main/sensors/amperage.h"
	.file 31 "./src/main/sensors/voltage.h"
	.file 32 "./src/main/sensors/battery.h"
	.file 33 "./src/main/sensors/acceleration.h"
	.file 34 "./src/main/sensors/compass.h"
	.file 35 "./src/main/sensors/gyro.h"
	.file 36 "./src/main/flight/servos.h"
	.file 37 "./src/main/flight/pid.h"
	.file 38 "./src/main/flight/imu.h"
	.file 39 "./src/main/flight/failsafe.h"
	.file 40 "./src/main/flight/navigation.h"
	.file 41 "./src/main/flight/altitudehold.h"
	.file 42 "./src/main/blackbox/blackbox.h"
	.file 43 "./src/main/msp/msp_server.h"
	.file 44 "./src/main/fc/msp_server_fc.h"
	.file 45 "./src/main/target/edison/target.h"
	.file 46 "./src/main/scheduler/scheduler.h"
	.file 47 "./src/main/drivers/system.h"
	.file 48 "./src/main/build/version.h"
	.section	.note.GNU-stack,"",@progbits
