	.file	"rc_controls.c"
# GNU C99 (Ubuntu 5.4.1-2ubuntu1~16.04) version 5.4.1 20160904 (x86_64-linux-gnu)
#	compiled by GNU C version 5.4.1 20160904, GMP version 6.1.0, MPFR version 3.1.4, MPC version 1.0.3
# GGC heuristics: --param ggc-min-expand=100 --param ggc-min-heapsize=131072
# options passed:  -fpreprocessed rc_controls.i -mtune=generic
# -march=x86-64 -g -std=gnu99 -ffunction-sections -fdata-sections
# -fverbose-asm -ffat-lto-objects -fstack-protector-strong -Wformat
# -Wformat-security
# options enabled:  -faggressive-loop-optimizations
# -fasynchronous-unwind-tables -fauto-inc-dec -fchkp-check-incomplete-type
# -fchkp-check-read -fchkp-check-write -fchkp-instrument-calls
# -fchkp-narrow-bounds -fchkp-optimize -fchkp-store-bounds
# -fchkp-use-static-bounds -fchkp-use-static-const-bounds
# -fchkp-use-wrappers -fcommon -fdata-sections -fdelete-null-pointer-checks
# -fdwarf2-cfi-asm -fearly-inlining -feliminate-unused-debug-types
# -ffunction-cse -ffunction-sections -fgcse-lm -fgnu-runtime -fgnu-unique
# -fident -finline-atomics -fira-hoist-pressure -fira-share-save-slots
# -fira-share-spill-slots -fivopts -fkeep-static-consts
# -fleading-underscore -flifetime-dse -flto-odr-type-merging -fmath-errno
# -fmerge-debug-strings -fpeephole -fprefetch-loop-arrays
# -freg-struct-return -fsched-critical-path-heuristic
# -fsched-dep-count-heuristic -fsched-group-heuristic -fsched-interblock
# -fsched-last-insn-heuristic -fsched-rank-heuristic -fsched-spec
# -fsched-spec-insn-heuristic -fsched-stalled-insns-dep -fschedule-fusion
# -fsemantic-interposition -fshow-column -fsigned-zeros
# -fsplit-ivs-in-unroller -fstack-protector-strong -fstdarg-opt
# -fstrict-volatile-bitfields -fsync-libcalls -ftrapping-math
# -ftree-coalesce-vars -ftree-cselim -ftree-forwprop -ftree-loop-if-convert
# -ftree-loop-im -ftree-loop-ivcanon -ftree-loop-optimize
# -ftree-parallelize-loops= -ftree-phiprop -ftree-reassoc -ftree-scev-cprop
# -funit-at-a-time -funwind-tables -fverbose-asm -fzero-initialized-in-bss
# -m128bit-long-double -m64 -m80387 -malign-stringops
# -mavx256-split-unaligned-load -mavx256-split-unaligned-store
# -mfancy-math-387 -mfp-ret-in-387 -mfxsr -mglibc -mieee-fp
# -mlong-double-80 -mmmx -mno-sse4 -mpush-args -mred-zone -msse -msse2
# -mtls-direct-seg-refs -mvzeroupper

	.text
.Ltext0:
	.comm	U_ID_0,4,4
	.comm	U_ID_1,4,4
	.comm	U_ID_2,4,4
	.comm	__pg_registry_start,8,8
	.comm	__pg_registry_end,8,8
	.comm	__pg_resetdata_start,8,8
	.comm	__pg_resetdata_end,8,8
	.comm	featureConfig,8,8
	.comm	profileSelection_System,1,1
	.comm	imu,8,8
	.comm	rxConfig_System,26,16
	.comm	armingConfig_System,4,1
	.comm	batteryConfig_System,8,8
	.comm	sensorSelectionConfig_System,3,1
	.comm	sensorAlignmentConfig_System,12,8
	.comm	sensorTrims_System,12,8
	.comm	gyroConfig,8,8
	.comm	accelerometerConfig,8,8
	.comm	gpsConfig_System,16,16
	.comm	motorAndServoConfig_System,12,8
	.comm	failsafeConfig_System,8,8
	.globl	armingConfig_Registry
	.section	.pg_registry,"a",@progbits
	.align 8
	.type	armingConfig_Registry, @object
	.size	armingConfig_Registry, 32
armingConfig_Registry:
# pgn:
	.value	16
# size:
	.value	4
# address:
	.zero	4
	.quad	armingConfig_System
# ptr:
	.quad	0
# reset:
# ptr:
	.quad	pgResetTemplate_armingConfig
	.section	.bss.rcControlsConfig_Storage,"aw",@nobits
	.align 16
	.type	rcControlsConfig_Storage, @object
	.size	rcControlsConfig_Storage, 24
rcControlsConfig_Storage:
	.zero	24
	.comm	rcControlsConfig_ProfileCurrent,8,8
	.globl	rcControlsConfig_Registry
	.section	.pg_registry
	.align 8
	.type	rcControlsConfig_Registry, @object
	.size	rcControlsConfig_Registry, 32
rcControlsConfig_Registry:
# pgn:
	.value	25
# size:
	.value	-32760
# address:
	.zero	4
	.quad	rcControlsConfig_Storage
# ptr:
	.quad	rcControlsConfig_ProfileCurrent
# reset:
# ptr:
	.quad	pgResetTemplate_rcControlsConfig
	.section	.bss.modeActivationProfile_Storage,"aw",@nobits
	.align 32
	.type	modeActivationProfile_Storage, @object
	.size	modeActivationProfile_Storage, 480
modeActivationProfile_Storage:
	.zero	480
	.comm	modeActivationProfile_ProfileCurrent,8,8
	.globl	modeActivationProfile_Registry
	.section	.pg_registry
	.align 8
	.type	modeActivationProfile_Registry, @object
	.size	modeActivationProfile_Registry, 32
modeActivationProfile_Registry:
# pgn:
	.value	41
# size:
	.value	-32608
# address:
	.zero	4
	.quad	modeActivationProfile_Storage
# ptr:
	.quad	modeActivationProfile_ProfileCurrent
# reset:
# ptr:
	.quad	0
	.section	.data.isUsingSticksToArm,"aw",@progbits
	.type	isUsingSticksToArm, @object
	.size	isUsingSticksToArm, 1
isUsingSticksToArm:
	.byte	1
	.comm	rcCommand,8,8
	.section	.bss.rcModeActivationMask,"aw",@nobits
	.align 4
	.type	rcModeActivationMask, @object
	.size	rcModeActivationMask, 4
rcModeActivationMask:
	.zero	4
	.globl	pgResetTemplate_rcControlsConfig
	.section	.pg_resetdata,"a",@progbits
	.align 2
	.type	pgResetTemplate_rcControlsConfig, @object
	.size	pgResetTemplate_rcControlsConfig, 8
pgResetTemplate_rcControlsConfig:
# deadband:
	.byte	0
# yaw_deadband:
	.byte	0
# alt_hold_deadband:
	.byte	40
# alt_hold_fast_change:
	.byte	1
# yaw_control_direction:
	.byte	1
# deadband3d_throttle:
	.zero	1
	.value	50
	.globl	pgResetTemplate_armingConfig
	.align 2
	.type	pgResetTemplate_armingConfig, @object
	.size	pgResetTemplate_armingConfig, 4
pgResetTemplate_armingConfig:
# disarm_kill_switch:
	.zero	1
	.byte	1
# auto_disarm_delay:
	.byte	5
# max_arm_angle:
	.byte	25
	.section	.text.useRcControlsConfig,"ax",@progbits
	.globl	useRcControlsConfig
	.type	useRcControlsConfig, @function
useRcControlsConfig:
.LFB24:
	.file 1 "src/main/fc/rc_controls.c"
	.loc 1 343 0
	.cfi_startproc
	pushq	%rbp	#
	.cfi_def_cfa_offset 16
	.cfi_offset 6, -16
	movq	%rsp, %rbp	#,
	.cfi_def_cfa_register 6
	subq	$16, %rsp	#,
	movq	%rdi, -8(%rbp)	# modeActivationConditions, modeActivationConditions
	.loc 1 344 0
	movq	-8(%rbp), %rax	# modeActivationConditions, tmp93
	movl	$0, %esi	#,
	movq	%rax, %rdi	# tmp93,
	call	rcModeIsActivationConditionPresent	#
	movzbl	%al, %eax	# D.7017, D.7018
	testl	%eax, %eax	# D.7018
	setne	%al	#, D.7017
	xorl	$1, %eax	#, D.7017
	movzbl	%al, %eax	# D.7017, D.7018
	andl	$1, %eax	#, D.7017
	movb	%al, isUsingSticksToArm(%rip)	# D.7017, isUsingSticksToArm
	.loc 1 345 0
	nop
	leave
	.cfi_def_cfa 7, 8
	ret
	.cfi_endproc
.LFE24:
	.size	useRcControlsConfig, .-useRcControlsConfig
	.section	.text.rcModeIsActivationConditionPresent,"ax",@progbits
	.globl	rcModeIsActivationConditionPresent
	.type	rcModeIsActivationConditionPresent, @function
rcModeIsActivationConditionPresent:
.LFB25:
	.loc 1 348 0
	.cfi_startproc
	pushq	%rbp	#
	.cfi_def_cfa_offset 16
	.cfi_offset 6, -16
	movq	%rsp, %rbp	#,
	.cfi_def_cfa_register 6
	movq	%rdi, -24(%rbp)	# modeActivationConditions, modeActivationConditions
	movl	%esi, -28(%rbp)	# modeId, modeId
	.loc 1 351 0
	movb	$0, -9(%rbp)	#, index
	jmp	.L3	#
.L6:
.LBB2:
	.loc 1 352 0
	movzbl	-9(%rbp), %eax	# index, D.7020
	leaq	0(,%rax,8), %rdx	#, D.7020
	movq	-24(%rbp), %rax	# modeActivationConditions, tmp98
	addq	%rdx, %rax	# D.7020, tmp97
	movq	%rax, -8(%rbp)	# tmp97, modeActivationCondition
	.loc 1 354 0
	movq	-8(%rbp), %rax	# modeActivationCondition, tmp99
	movl	(%rax), %eax	# modeActivationCondition_7->modeId, D.7021
	cmpl	-28(%rbp), %eax	# modeId, D.7021
	jne	.L4	#,
	.loc 1 354 0 is_stmt 0 discriminator 1
	movq	-8(%rbp), %rax	# modeActivationCondition, tmp100
	movzbl	5(%rax), %edx	# modeActivationCondition_7->range.startStep, D.7022
	movq	-8(%rbp), %rax	# modeActivationCondition, tmp101
	movzbl	6(%rax), %eax	# modeActivationCondition_7->range.endStep, D.7022
	cmpb	%al, %dl	# D.7022, D.7022
	jnb	.L4	#,
	.loc 1 355 0 is_stmt 1
	movl	$1, %eax	#, D.7019
	jmp	.L5	#
.L4:
.LBE2:
	.loc 1 351 0 discriminator 2
	movzbl	-9(%rbp), %eax	# index, D.7022
	addl	$1, %eax	#, tmp102
	movb	%al, -9(%rbp)	# tmp102, index
.L3:
	.loc 1 351 0 is_stmt 0 discriminator 1
	cmpb	$19, -9(%rbp)	#, index
	jbe	.L6	#,
	.loc 1 358 0 is_stmt 1
	movl	$0, %eax	#, D.7019
.L5:
	.loc 1 359 0
	popq	%rbp	#
	.cfi_def_cfa 7, 8
	ret
	.cfi_endproc
.LFE25:
	.size	rcModeIsActivationConditionPresent, .-rcModeIsActivationConditionPresent
	.section	.text.rcModeIsActive,"ax",@progbits
	.globl	rcModeIsActive
	.type	rcModeIsActive, @function
rcModeIsActive:
.LFB26:
	.loc 1 363 0
	.cfi_startproc
	pushq	%rbp	#
	.cfi_def_cfa_offset 16
	.cfi_offset 6, -16
	movq	%rsp, %rbp	#,
	.cfi_def_cfa_register 6
	movl	%edi, -4(%rbp)	# modeId, modeId
	.loc 1 364 0
	movl	-4(%rbp), %eax	# modeId, tmp93
	movl	$1, %edx	#, tmp94
	movl	%eax, %ecx	# tmp93, tmp97
	sall	%cl, %edx	# tmp97, D.7023
	movl	%edx, %eax	# D.7023, D.7023
	movl	%eax, %edx	# D.7023, D.7024
	movl	rcModeActivationMask(%rip), %eax	# rcModeActivationMask, D.7024
	andl	%edx, %eax	# D.7024, D.7024
	testl	%eax, %eax	# D.7024
	setne	%al	#, D.7025
	.loc 1 365 0
	popq	%rbp	#
	.cfi_def_cfa 7, 8
	ret
	.cfi_endproc
.LFE26:
	.size	rcModeIsActive, .-rcModeIsActive
	.text
.Letext0:
	.file 2 "/usr/include/stdint.h"
	.file 3 "./src/main/common/axis.h"
	.file 4 "./src/main/config/parameter_group.h"
	.file 5 "./src/main/config/feature.h"
	.file 6 "./src/main/config/profile.h"
	.file 7 "/usr/include/mraa/i2c.h"
	.file 8 "./src/main/drivers/SFE_LSM9DS0.h"
	.file 9 "./src/main/rx/rx.h"
	.file 10 "./src/main/fc/rc_controls.h"
	.file 11 "./src/main/sensors/battery.h"
	.file 12 "./src/main/sensors/sensors.h"
	.file 13 "./src/main/sensors/gyro.h"
	.file 14 "./src/main/sensors/acceleration.h"
	.file 15 "./src/main/io/gps.h"
	.file 16 "./src/main/io/motor_and_servo.h"
	.file 17 "./src/main/flight/pid.h"
	.file 18 "./src/main/flight/navigation.h"
	.file 19 "./src/main/flight/failsafe.h"
	.file 20 "./src/main/target/edison/target.h"
	.file 21 "./src/main/drivers/system.h"
	.section	.note.GNU-stack,"",@progbits
